; Function Attrs: mustprogress uwtable
define hidden void @_ZN4cvc58internal6theory5arith6linear10ConstraintC2EjNS3_14ConstraintTypeERKNS0_13DeltaRationalEb(ptr noundef nonnull align 8 dereferenceable(145) %this, i32 noundef %x, i32 noundef %t, ptr noundef nonnull align 8 dereferenceable(64) %v, i1 noundef zeroext %produceProofs) unnamed_addr #4 align 2 personality ptr @__gxx_personality_v0 {
entry:
  store i32 %x, ptr %this, align 8
  %d_type = getelementptr inbounds i8, ptr %this, i64 4
  store i32 %t, ptr %d_type, align 4
  %d_value = getelementptr inbounds i8, ptr %this, i64 8
  tail call void @_ZN4cvc58internal13DeltaRationalC2ERKS1_(ptr noundef nonnull align 8 dereferenceable(64) %d_value, ptr noundef nonnull align 8 dereferenceable(64) %v)
  %d_database = getelementptr inbounds i8, ptr %this, i64 72
  store ptr null, ptr %d_database, align 8
  %d_literal = getelementptr inbounds i8, ptr %this, i64 80
  tail call void @llvm.experimental.noalias.scope.decl(metadata !4)
  %0 = load ptr, ptr @_ZN4cvc58internal12NodeTemplateILb1EE6s_nullE, align 8, !noalias !4
  store ptr %0, ptr %d_literal, align 8, !alias.scope !4
  %bf.load.i.i.i = load i64, ptr %0, align 8, !noalias !4
  %bf.lshr.i.i.i = lshr i64 %bf.load.i.i.i, 40
  %1 = trunc i64 %bf.lshr.i.i.i to i32
  %bf.cast.i.i.i = and i32 %1, 1048575
  %cmp.i.i.i = icmp ult i32 %bf.cast.i.i.i, 1048574
  br i1 %cmp.i.i.i, label %if.then.i.i.i, label %if.else.i.i.i

if.then.i.i.i:                                    ; preds = %entry
  %bf.value.i.i.i = add i64 %bf.load.i.i.i, 1099511627776
  %bf.shl.i.i.i = and i64 %bf.value.i.i.i, 1152920405095219200
  %bf.clear7.i.i.i = and i64 %bf.load.i.i.i, -1152920405095219201
  %bf.set.i.i.i = or disjoint i64 %bf.shl.i.i.i, %bf.clear7.i.i.i
  store i64 %bf.set.i.i.i, ptr %0, align 8, !noalias !4
  br label %invoke.cont3

if.else.i.i.i:                                    ; preds = %entry
  %cmp12.i.i.i = icmp eq i32 %bf.cast.i.i.i, 1048574
  br i1 %cmp12.i.i.i, label %if.then13.i.i.i, label %invoke.cont3

if.then13.i.i.i:                                  ; preds = %if.else.i.i.i
  %bf.set23.i.i.i = or i64 %bf.load.i.i.i, 1152920405095219200
  store i64 %bf.set23.i.i.i, ptr %0, align 8, !noalias !4
  invoke void @_ZN4cvc58internal4expr9NodeValue20markRefCountMaxedOutEv(ptr noundef nonnull align 8 dereferenceable(16) %0)
          to label %invoke.cont3 unwind label %lpad

invoke.cont3:                                     ; preds = %if.then13.i.i.i, %if.then.i.i.i, %if.else.i.i.i
  %d_negation = getelementptr inbounds i8, ptr %this, i64 88
  store ptr null, ptr %d_negation, align 8
  %d_canBePropagated = getelementptr inbounds i8, ptr %this, i64 96
  store i8 0, ptr %d_canBePropagated, align 8
  %d_assertionOrder = getelementptr inbounds i8, ptr %this, i64 104
  store i64 -1, ptr %d_assertionOrder, align 8
  %d_witness = getelementptr inbounds i8, ptr %this, i64 112
  tail call void @llvm.experimental.noalias.scope.decl(metadata !7)
  %2 = load ptr, ptr @_ZN4cvc58internal12NodeTemplateILb0EE6s_nullE, align 8, !noalias !7
  store ptr %2, ptr %d_witness, align 8, !alias.scope !7
  %frombool = zext i1 %produceProofs to i8
  %d_crid = getelementptr inbounds i8, ptr %this, i64 120
  store i64 -1, ptr %d_crid, align 8
  %d_split = getelementptr inbounds i8, ptr %this, i64 128
  store i8 0, ptr %d_split, align 8
  %d_variablePosition = getelementptr inbounds i8, ptr %this, i64 136
  store ptr null, ptr %d_variablePosition, align 8
  %d_produceProofs = getelementptr inbounds i8, ptr %this, i64 144
  store i8 %frombool, ptr %d_produceProofs, align 8
  ret void

lpad:                                             ; preds = %if.then13.i.i.i
  %3 = landingpad { ptr, i32 }
          cleanup
  tail call void @_ZN4cvc58internal13DeltaRationalD2Ev(ptr noundef nonnull align 8 dereferenceable(64) %d_value) #24
  resume { ptr, i32 } %3
}